; Function Attrs: nounwind uwtable
define internal fastcc range(i32 -2147483648, 2) i32 @decUnitCompare(ptr noundef captures(address) %0, i32 noundef %1, ptr noundef readonly captures(none) %2, i32 noundef range(i32 0, 715827883) %3, i32 noundef %4) unnamed_addr #4 {
  %6 = alloca [25 x i16], align 16
  call void @llvm.lifetime.start.p0(i64 50, ptr nonnull %6) #18
  %7 = icmp eq i32 %4, 0
  br i1 %7, label %8, label %23

8:                                                ; preds = %5
  %9 = icmp sgt i32 %1, %3
  br i1 %9, label %.loopexit, label %10

10:                                               ; preds = %8
  %11 = icmp slt i32 %1, %3
  br i1 %11, label %.loopexit, label %12

12:                                               ; preds = %10
  %13 = zext nneg i32 %1 to i64
  %14 = getelementptr inbounds nuw i16, ptr %0, i64 %13
  %15 = getelementptr inbounds nuw i16, ptr %2, i64 %13
  br label %16

16:                                               ; preds = %21, %12
  %.pn = phi ptr [ %14, %12 ], [ %.063, %21 ]
  %.pn76 = phi ptr [ %15, %12 ], [ %.062, %21 ]
  %.062 = getelementptr inbounds i8, ptr %.pn76, i64 -2
  %.063 = getelementptr inbounds i8, ptr %.pn, i64 -2
  %.not75 = icmp ult ptr %.063, %0
  br i1 %.not75, label %.loopexit, label %17

17:                                               ; preds = %16
  %18 = load i16, ptr %.063, align 2, !tbaa !11
  %19 = load i16, ptr %.062, align 2, !tbaa !11
  %20 = icmp ugt i16 %18, %19
  br i1 %20, label %.loopexit, label %21

21:                                               ; preds = %17
  %22 = icmp ult i16 %18, %19
  br i1 %22, label %.loopexit, label %16, !llvm.loop !38

23:                                               ; preds = %5
  %24 = icmp slt i32 %4, 50
  br i1 %24, label %25, label %.thread

25:                                               ; preds = %23
  %26 = sext i32 %4 to i64
  %27 = getelementptr inbounds [50 x i8], ptr @d2utable, i64 0, i64 %26
  %28 = load i8, ptr %27, align 1, !tbaa !19
  %29 = zext i8 %28 to i32
  %30 = add nuw nsw i32 %3, %29
  %31 = icmp sgt i32 %1, %30
  br i1 %31, label %.loopexit, label %36

.thread:                                          ; preds = %23
  %32 = add nuw nsw i32 %4, 2
  %33 = udiv i32 %32, 3
  %34 = add nuw nsw i32 %33, %3
  %35 = icmp sgt i32 %1, %34
  br i1 %35, label %.loopexit, label %.thread78

36:                                               ; preds = %25
  %37 = add nsw i32 %1, 1
  %38 = icmp slt i32 %37, %30
  br i1 %38, label %.loopexit, label %.thread79

.thread78:                                        ; preds = %.thread
  %39 = add nsw i32 %1, 1
  %40 = icmp slt i32 %39, %34
  br i1 %40, label %.loopexit, label %.thread79

.thread79:                                        ; preds = %.thread78, %36
  %.pre-phi = phi i32 [ %30, %36 ], [ %34, %.thread78 ]
  %41 = icmp samesign ugt i32 %.pre-phi, 23
  br i1 %41, label %42, label %48

42:                                               ; preds = %.thread79
  %43 = shl nuw i32 %.pre-phi, 1
  %44 = add nuw i32 %43, 4
  %45 = zext i32 %44 to i64
  %46 = tail call noalias ptr @malloc(i64 noundef %45) #19
  %47 = icmp eq ptr %46, null
  br i1 %47, label %.loopexit, label %48

48:                                               ; preds = %42, %.thread79
  %.065 = phi ptr [ null, %.thread79 ], [ %46, %42 ]
  %.060 = phi ptr [ %6, %.thread79 ], [ %46, %42 ]
  %49 = sdiv i32 %4, 3
  %50 = srem i32 %4, 3
  %51 = sext i32 %50 to i64
  %52 = getelementptr inbounds [10 x i32], ptr @DECPOWERS, i64 0, i64 %51
  %53 = load i32, ptr %52, align 4, !tbaa !16
  %54 = sub nsw i32 0, %53
  %55 = call fastcc i32 @decUnitAddSub(ptr noundef %0, i32 noundef %1, ptr noundef %2, i32 noundef %3, i32 noundef %49, ptr noundef nonnull %.060, i32 noundef %54)
  %56 = icmp slt i32 %55, 0
  br i1 %56, label %69, label %.preheader

.preheader:                                       ; preds = %48
  %57 = zext nneg i32 %55 to i64
  %58 = getelementptr inbounds nuw i16, ptr %.060, i64 %57
  %59 = getelementptr inbounds i8, ptr %58, i64 -2
  %60 = icmp ult ptr %.060, %59
  br i1 %60, label %.lr.ph, label %.critedge

.lr.ph:                                           ; preds = %.preheader, %63
  %.06180 = phi ptr [ %64, %63 ], [ %.060, %.preheader ]
  %61 = load i16, ptr %.06180, align 2, !tbaa !11
  %62 = icmp eq i16 %61, 0
  br i1 %62, label %63, label %.critedge

63:                                               ; preds = %.lr.ph
  %64 = getelementptr inbounds nuw i8, ptr %.06180, i64 2
  %65 = icmp ult ptr %64, %59
  br i1 %65, label %.lr.ph, label %.critedge, !llvm.loop !84

.critedge:                                        ; preds = %.lr.ph, %63, %.preheader
  %.061.lcssa = phi ptr [ %.060, %.preheader ], [ %64, %63 ], [ %.06180, %.lr.ph ]
  %66 = load i16, ptr %.061.lcssa, align 2, !tbaa !11
  %67 = icmp ne i16 %66, 0
  %68 = zext i1 %67 to i32
  br label %69

69:                                               ; preds = %48, %.critedge
  %.0 = phi i32 [ %68, %.critedge ], [ -1, %48 ]
  %.not = icmp eq ptr %.065, null
  br i1 %.not, label %.loopexit, label %70

70:                                               ; preds = %69
  call void @free(ptr noundef nonnull %.065) #18
  br label %.loopexit

.loopexit:                                        ; preds = %16, %21, %17, %.thread78, %.thread, %69, %70, %42, %36, %25, %10, %8
  %.059 = phi i32 [ 1, %8 ], [ -1, %10 ], [ 1, %25 ], [ -1, %36 ], [ -2147483648, %42 ], [ %.0, %70 ], [ %.0, %69 ], [ 1, %.thread ], [ -1, %.thread78 ], [ 0, %16 ], [ -1, %21 ], [ 1, %17 ]
  call void @llvm.lifetime.end.p0(i64 50, ptr nonnull %6) #18
  ret i32 %.059
}